target datalayout = "e-m:e-p270:32:32-p271:32:32-p272:64:64-i64:64-i128:128-f80:128-n8:16:32:64-S128"
target triple = "x86_64-pc-linux-gnu"

%"class.std::__cxx11::basic_string" = type { %"struct.std::__cxx11::basic_string<char>::_Alloc_hider", i64, %union.anon }
%"struct.std::__cxx11::basic_string<char>::_Alloc_hider" = type { ptr }
%union.anon = type { i64, [8 x i8] }
%"struct.std::_Vector_base" = type { %"struct.std::_Vector_base<const Assimp::FBX::Token *, std::allocator<const Assimp::FBX::Token *>>::_Vector_impl" }
%"struct.std::_Vector_base<const Assimp::FBX::Token *, std::allocator<const Assimp::FBX::Token *>>::_Vector_impl" = type { %"struct.std::_Vector_base<const Assimp::FBX::Token *, std::allocator<const Assimp::FBX::Token *>>::_Vector_impl_data" }
%"struct.std::_Vector_base<const Assimp::FBX::Token *, std::allocator<const Assimp::FBX::Token *>>::_Vector_impl_data" = type { ptr, ptr, ptr }
%"class.Assimp::FBX::Token" = type <{ ptr, ptr, i32, [4 x i8], %union.anon.30, i32, [4 x i8] }>
%union.anon.30 = type { i64 }

@.str.28 = private unnamed_addr constant [40 x i8] c"Not enough tokens for property of type \00", align 1
@.str.29 = private unnamed_addr constant [12 x i8] c" at offset \00", align 1
@_ZTI17DeadlyImportError = linkonce_odr constant { ptr, ptr, ptr } { ptr getelementptr inbounds (ptr, ptr @_ZTVN10__cxxabiv120__si_class_type_infoE, i64 2), ptr @_ZTS17DeadlyImportError, ptr @_ZTI15DeadlyErrorBase }, comdat, align 8
@.str.30 = private unnamed_addr constant [10 x i8] c" at line \00", align 1

; Function Attrs: mustprogress nounwind uwtable
define linkonce_odr void @_ZNSt15__new_allocatorIcE10deallocateEPcm(ptr noundef nonnull align 1 dereferenceable(1) %0, ptr noundef %1, i64 noundef %2) #2 comdat align 2 {
  %4 = alloca ptr, align 8
  %5 = alloca ptr, align 8
  %6 = alloca i64, align 8
  store ptr %0, ptr %4, align 8
  store ptr %1, ptr %5, align 8
  store i64 %2, ptr %6, align 8
  %7 = load ptr, ptr %5, align 8
  %8 = load i64, ptr %6, align 8
  %9 = mul i64 %8, 1
  call void @_ZdlPvm(ptr noundef %7, i64 noundef %9) #23
  ret void
}

; Function Attrs: mustprogress nounwind uwtable
define linkonce_odr noundef ptr @_ZNSt19__ptr_traits_ptr_toIPKcS0_Lb0EE10pointer_toERS0_(ptr noundef nonnull align 1 dereferenceable(1) %0) #2 comdat align 2 {
  %2 = alloca ptr, align 8
  store ptr %0, ptr %2, align 8
  %3 = load ptr, ptr %2, align 8
  ret ptr %3
}

; Function Attrs: mustprogress uwtable
define linkonce_odr void @_ZNSt16allocator_traitsISaIcEE10deallocateERS0_Pcm(ptr noundef nonnull align 1 dereferenceable(1) %0, ptr noundef %1, i64 noundef %2) #1 comdat align 2 {
  %4 = alloca ptr, align 8
  %5 = alloca ptr, align 8
  %6 = alloca i64, align 8
  store ptr %0, ptr %4, align 8
  store ptr %1, ptr %5, align 8
  store i64 %2, ptr %6, align 8
  %7 = load ptr, ptr %4, align 8
  %8 = load ptr, ptr %5, align 8
  %9 = load i64, ptr %6, align 8
  call void @_ZNSt15__new_allocatorIcE10deallocateEPcm(ptr noundef nonnull align 1 dereferenceable(1) %7, ptr noundef %8, i64 noundef %9)
  ret void
}

; Function Attrs: mustprogress nounwind uwtable
define available_externally noundef nonnull align 1 dereferenceable(1) ptr @_ZNSt7__cxx1112basic_stringIcSt11char_traitsIcESaIcEE16_M_get_allocatorEv(ptr noundef nonnull align 8 dereferenceable(32) %0) #2 align 2 {
  %2 = alloca ptr, align 8
  store ptr %0, ptr %2, align 8
  %3 = load ptr, ptr %2, align 8
  %4 = getelementptr inbounds nuw %"class.std::__cxx11::basic_string", ptr %3, i32 0, i32 0
  ret ptr %4
}

; Function Attrs: mustprogress nounwind uwtable
define available_externally noundef ptr @_ZNKSt7__cxx1112basic_stringIcSt11char_traitsIcESaIcEE13_M_local_dataEv(ptr noundef nonnull align 8 dereferenceable(32) %0) #2 align 2 {
  %2 = alloca ptr, align 8
  store ptr %0, ptr %2, align 8
  %3 = load ptr, ptr %2, align 8
  %4 = getelementptr inbounds nuw %"class.std::__cxx11::basic_string", ptr %3, i32 0, i32 2
  %5 = getelementptr inbounds [16 x i8], ptr %4, i64 0, i64 0
  %6 = call noundef ptr @_ZNSt19__ptr_traits_ptr_toIPKcS0_Lb0EE10pointer_toERS0_(ptr noundef nonnull align 1 dereferenceable(1) %5) #18
  ret ptr %6
}

; Function Attrs: mustprogress nounwind uwtable
define available_externally noundef ptr @_ZNKSt7__cxx1112basic_stringIcSt11char_traitsIcESaIcEE7_M_dataEv(ptr noundef nonnull align 8 dereferenceable(32) %0) #2 align 2 {
  %2 = alloca ptr, align 8
  store ptr %0, ptr %2, align 8
  %3 = load ptr, ptr %2, align 8
  %4 = getelementptr inbounds nuw %"class.std::__cxx11::basic_string", ptr %3, i32 0, i32 0
  %5 = getelementptr inbounds nuw %"struct.std::__cxx11::basic_string<char>::_Alloc_hider", ptr %4, i32 0, i32 0
  %6 = load ptr, ptr %5, align 8
  ret ptr %6
}

; Function Attrs: mustprogress nounwind uwtable
define available_externally void @_ZNSt7__cxx1112basic_stringIcSt11char_traitsIcESaIcEE10_M_destroyEm(ptr noundef nonnull align 8 dereferenceable(32) %0, i64 noundef %1) #2 align 2 personality ptr @__gxx_personality_v0 {
  %3 = alloca ptr, align 8
  %4 = alloca i64, align 8
  store ptr %0, ptr %3, align 8
  store i64 %1, ptr %4, align 8
  %5 = load ptr, ptr %3, align 8
  %6 = invoke noundef nonnull align 1 dereferenceable(1) ptr @_ZNSt7__cxx1112basic_stringIcSt11char_traitsIcESaIcEE16_M_get_allocatorEv(ptr noundef nonnull align 8 dereferenceable(32) %5)
          to label %7 unwind label %12

7:                                                ; preds = %2
  %8 = call noundef ptr @_ZNKSt7__cxx1112basic_stringIcSt11char_traitsIcESaIcEE7_M_dataEv(ptr noundef nonnull align 8 dereferenceable(32) %5)
  %9 = load i64, ptr %4, align 8
  %10 = add i64 %9, 1
  invoke void @_ZNSt16allocator_traitsISaIcEE10deallocateERS0_Pcm(ptr noundef nonnull align 1 dereferenceable(1) %6, ptr noundef %8, i64 noundef %10)
          to label %11 unwind label %12

11:                                               ; preds = %7
  ret void

12:                                               ; preds = %7, %2
  %13 = landingpad { ptr, i32 }
          catch ptr null
  %14 = extractvalue { ptr, i32 } %13, 0
  call void @__clang_call_terminate(ptr %14) #19
  unreachable
}

; Function Attrs: mustprogress uwtable
define available_externally noundef zeroext i1 @_ZNKSt7__cxx1112basic_stringIcSt11char_traitsIcESaIcEE11_M_is_localEv(ptr noundef nonnull align 8 dereferenceable(32) %0) #1 align 2 {
  %2 = alloca i1, align 1
  %3 = alloca ptr, align 8
  store ptr %0, ptr %3, align 8
  %4 = load ptr, ptr %3, align 8
  %5 = call noundef ptr @_ZNKSt7__cxx1112basic_stringIcSt11char_traitsIcESaIcEE7_M_dataEv(ptr noundef nonnull align 8 dereferenceable(32) %4)
  %6 = call noundef ptr @_ZNKSt7__cxx1112basic_stringIcSt11char_traitsIcESaIcEE13_M_local_dataEv(ptr noundef nonnull align 8 dereferenceable(32) %4)
  %7 = icmp eq ptr %5, %6
  br i1 %7, label %8, label %14

8:                                                ; preds = %1
  %9 = getelementptr inbounds nuw %"class.std::__cxx11::basic_string", ptr %4, i32 0, i32 1
  %10 = load i64, ptr %9, align 8
  %11 = icmp ugt i64 %10, 15
  br i1 %11, label %12, label %13

12:                                               ; preds = %8
  unreachable

13:                                               ; preds = %8
  store i1 true, ptr %2, align 1
  br label %15

14:                                               ; preds = %1
  store i1 false, ptr %2, align 1
  br label %15

15:                                               ; preds = %14, %13
  %16 = load i1, ptr %2, align 1
  ret i1 %16
}

; Function Attrs: noinline noreturn nounwind uwtable
define linkonce_odr hidden void @__clang_call_terminate(ptr noundef %0) #7 comdat {
  %2 = call ptr @__cxa_begin_catch(ptr %0) #18
  call void @_ZSt9terminatev() #19
  unreachable
}

; Function Attrs: mustprogress nounwind uwtable
define linkonce_odr void @_ZNSt15__new_allocatorIcED2Ev(ptr noundef nonnull align 1 dereferenceable(1) %0) unnamed_addr #2 comdat align 2 {
  %2 = alloca ptr, align 8
  store ptr %0, ptr %2, align 8
  ret void
}

; Function Attrs: mustprogress uwtable
define available_externally void @_ZNSt7__cxx1112basic_stringIcSt11char_traitsIcESaIcEE10_M_disposeEv(ptr noundef nonnull align 8 dereferenceable(32) %0) #1 align 2 {
  %2 = alloca ptr, align 8
  store ptr %0, ptr %2, align 8
  %3 = load ptr, ptr %2, align 8
  %4 = call noundef zeroext i1 @_ZNKSt7__cxx1112basic_stringIcSt11char_traitsIcESaIcEE11_M_is_localEv(ptr noundef nonnull align 8 dereferenceable(32) %3)
  br i1 %4, label %8, label %5

5:                                                ; preds = %1
  %6 = getelementptr inbounds nuw %"class.std::__cxx11::basic_string", ptr %3, i32 0, i32 2
  %7 = load i64, ptr %6, align 8
  call void @_ZNSt7__cxx1112basic_stringIcSt11char_traitsIcESaIcEE10_M_destroyEm(ptr noundef nonnull align 8 dereferenceable(32) %3, i64 noundef %7) #18
  br label %8

8:                                                ; preds = %5, %1
  ret void
}

; Function Attrs: mustprogress nounwind uwtable
define available_externally void @_ZNSt7__cxx1112basic_stringIcSt11char_traitsIcESaIcEED2Ev(ptr noundef nonnull align 8 dereferenceable(32) %0) unnamed_addr #2 align 2 personality ptr @__gxx_personality_v0 {
  %2 = alloca ptr, align 8
  store ptr %0, ptr %2, align 8
  %3 = load ptr, ptr %2, align 8
  invoke void @_ZNSt7__cxx1112basic_stringIcSt11char_traitsIcESaIcEE10_M_disposeEv(ptr noundef nonnull align 8 dereferenceable(32) %3)
          to label %4 unwind label %6

4:                                                ; preds = %1
  %5 = getelementptr inbounds nuw %"class.std::__cxx11::basic_string", ptr %3, i32 0, i32 0
  call void @_ZNSt15__new_allocatorIcED2Ev(ptr noundef nonnull align 8 dereferenceable(8) %5) #18
  ret void

6:                                                ; preds = %1
  %7 = landingpad { ptr, i32 }
          catch ptr null
  %8 = extractvalue { ptr, i32 } %7, 0
  call void @__clang_call_terminate(ptr %8) #19
  unreachable
}

; Function Attrs: mustprogress nounwind uwtable
define linkonce_odr hidden noundef i32 @_ZNK6Assimp3FBX5Token4LineEv(ptr noundef nonnull align 8 dereferenceable(36) %0) #2 comdat align 2 {
  %2 = alloca ptr, align 8
  store ptr %0, ptr %2, align 8
  %3 = load ptr, ptr %2, align 8
  %4 = getelementptr inbounds nuw %"class.Assimp::FBX::Token", ptr %3, i32 0, i32 4
  %5 = load i64, ptr %4, align 8
  %6 = trunc i64 %5 to i32
  ret i32 %6
}

; Function Attrs: mustprogress nounwind uwtable
define linkonce_odr hidden noundef i64 @_ZNK6Assimp3FBX5Token6OffsetEv(ptr noundef nonnull align 8 dereferenceable(36) %0) #2 comdat align 2 {
  %2 = alloca ptr, align 8
  store ptr %0, ptr %2, align 8
  %3 = load ptr, ptr %2, align 8
  %4 = getelementptr inbounds nuw %"class.Assimp::FBX::Token", ptr %3, i32 0, i32 4
  %5 = load i64, ptr %4, align 8
  ret i64 %5
}

; Function Attrs: mustprogress nounwind uwtable
define linkonce_odr hidden noundef zeroext i1 @_ZNK6Assimp3FBX5Token8IsBinaryEv(ptr noundef nonnull align 8 dereferenceable(36) %0) #2 comdat align 2 {
  %2 = alloca ptr, align 8
  store ptr %0, ptr %2, align 8
  %3 = load ptr, ptr %2, align 8
  %4 = getelementptr inbounds nuw %"class.Assimp::FBX::Token", ptr %3, i32 0, i32 5
  %5 = load i32, ptr %4, align 8
  %6 = icmp eq i32 %5, -1
  ret i1 %6
}

; Function Attrs: mustprogress nounwind uwtable
define linkonce_odr hidden noundef nonnull align 8 dereferenceable(8) ptr @_ZNKSt6vectorIPKN6Assimp3FBX5TokenESaIS4_EEixEm(ptr noundef nonnull align 8 dereferenceable(24) %0, i64 noundef %1) #2 comdat align 2 {
  %3 = alloca ptr, align 8
  %4 = alloca i64, align 8
  store ptr %0, ptr %3, align 8
  store i64 %1, ptr %4, align 8
  %5 = load ptr, ptr %3, align 8
  %6 = getelementptr inbounds nuw %"struct.std::_Vector_base", ptr %5, i32 0, i32 0
  %7 = getelementptr inbounds nuw %"struct.std::_Vector_base<const Assimp::FBX::Token *, std::allocator<const Assimp::FBX::Token *>>::_Vector_impl_data", ptr %6, i32 0, i32 0
  %8 = load ptr, ptr %7, align 8
  %9 = load i64, ptr %4, align 8
  %10 = getelementptr inbounds nuw ptr, ptr %8, i64 %9
  ret ptr %10
}

; Function Attrs: mustprogress nounwind uwtable
define linkonce_odr hidden noundef i64 @_ZNKSt6vectorIPKN6Assimp3FBX5TokenESaIS4_EE4sizeEv(ptr noundef nonnull align 8 dereferenceable(24) %0) #2 comdat align 2 {
  %2 = alloca ptr, align 8
  store ptr %0, ptr %2, align 8
  %3 = load ptr, ptr %2, align 8
  %4 = getelementptr inbounds nuw %"struct.std::_Vector_base", ptr %3, i32 0, i32 0
  %5 = getelementptr inbounds nuw %"struct.std::_Vector_base<const Assimp::FBX::Token *, std::allocator<const Assimp::FBX::Token *>>::_Vector_impl_data", ptr %4, i32 0, i32 1
  %6 = load ptr, ptr %5, align 8
  %7 = getelementptr inbounds nuw %"struct.std::_Vector_base", ptr %3, i32 0, i32 0
  %8 = getelementptr inbounds nuw %"struct.std::_Vector_base<const Assimp::FBX::Token *, std::allocator<const Assimp::FBX::Token *>>::_Vector_impl_data", ptr %7, i32 0, i32 0
  %9 = load ptr, ptr %8, align 8
  %10 = ptrtoint ptr %6 to i64
  %11 = ptrtoint ptr %9 to i64
  %12 = sub i64 %10, %11
  %13 = sdiv exact i64 %12, 8
  ret i64 %13
}

; Function Attrs: mustprogress uwtable
define internal void @_ZN6Assimp3FBX12_GLOBAL__N_115checkTokenCountERKSt6vectorIPKNS0_5TokenESaIS5_EEj(ptr noundef nonnull align 8 dereferenceable(24) %0, i32 noundef %1) #1 personality ptr @__gxx_personality_v0 {
  %3 = alloca ptr, align 8
  %4 = alloca i32, align 4
  %5 = alloca ptr, align 8
  %6 = alloca %"class.std::__cxx11::basic_string", align 8
  %7 = alloca ptr, align 8
  %8 = alloca i32, align 4
  %9 = alloca i64, align 8
  %10 = alloca i1, align 1
  %11 = alloca i32, align 4
  %12 = alloca i1, align 1
  store ptr %0, ptr %3, align 8
  store i32 %1, ptr %4, align 4
  %13 = load ptr, ptr %3, align 8
  %14 = call noundef i64 @_ZNKSt6vectorIPKN6Assimp3FBX5TokenESaIS4_EE4sizeEv(ptr noundef nonnull align 8 dereferenceable(24) %13) #18
  %15 = load i32, ptr %4, align 4
  %16 = zext i32 %15 to i64
  %17 = icmp ult i64 %14, %16
  br i1 %17, label %18, label %64

18:                                               ; preds = %2
  call void @llvm.lifetime.start.p0(i64 8, ptr %5) #18
  call void @llvm.lifetime.start.p0(i64 32, ptr %6) #18
  %19 = load ptr, ptr %3, align 8
  %20 = call noundef nonnull align 8 dereferenceable(8) ptr @_ZNKSt6vectorIPKN6Assimp3FBX5TokenESaIS4_EEixEm(ptr noundef nonnull align 8 dereferenceable(24) %19, i64 noundef 1) #18
  %21 = load ptr, ptr %20, align 8
  call void @_ZN6Assimp3FBX18ParseTokenAsStringB5cxx11ERKNS0_5TokenE(ptr dead_on_unwind writable sret(%"class.std::__cxx11::basic_string") align 8 %6, ptr noundef nonnull align 8 dereferenceable(36) %21)
  store ptr %6, ptr %5, align 8
  %22 = load ptr, ptr %3, align 8
  %23 = call noundef nonnull align 8 dereferenceable(8) ptr @_ZNKSt6vectorIPKN6Assimp3FBX5TokenESaIS4_EEixEm(ptr noundef nonnull align 8 dereferenceable(24) %22, i64 noundef 1) #18
  %24 = load ptr, ptr %23, align 8
  %25 = invoke noundef zeroext i1 @_ZNK6Assimp3FBX5Token8IsBinaryEv(ptr noundef nonnull align 8 dereferenceable(36) %24)
          to label %26 unwind label %36

26:                                               ; preds = %18
  br i1 %25, label %27, label %47

27:                                               ; preds = %26
  store i1 true, ptr %10, align 1
  %28 = call ptr @__cxa_allocate_exception(i64 16) #18
  %29 = load ptr, ptr %5, align 8
  call void @llvm.lifetime.start.p0(i64 8, ptr %9) #18
  %30 = load ptr, ptr %3, align 8
  %31 = call noundef nonnull align 8 dereferenceable(8) ptr @_ZNKSt6vectorIPKN6Assimp3FBX5TokenESaIS4_EEixEm(ptr noundef nonnull align 8 dereferenceable(24) %30, i64 noundef 1) #18
  %32 = load ptr, ptr %31, align 8
  %33 = invoke noundef i64 @_ZNK6Assimp3FBX5Token6OffsetEv(ptr noundef nonnull align 8 dereferenceable(36) %32)
          to label %34 unwind label %40

34:                                               ; preds = %27
  store i64 %33, ptr %9, align 8
  invoke void @_ZN17DeadlyImportErrorC2IJRA40_KcRKNSt7__cxx1112basic_stringIcSt11char_traitsIcESaIcEEERA12_S1_mEEEDpOT_(ptr noundef nonnull align 8 dereferenceable(16) %28, ptr noundef nonnull align 1 dereferenceable(40) @.str.28, ptr noundef nonnull align 8 dereferenceable(32) %29, ptr noundef nonnull align 1 dereferenceable(12) @.str.29, ptr noundef nonnull align 8 dereferenceable(8) %9)
          to label %35 unwind label %40

35:                                               ; preds = %34
  store i1 false, ptr %10, align 1
  invoke void @__cxa_throw(ptr %28, ptr @_ZTI17DeadlyImportError, ptr @_ZNSt13runtime_errorD2Ev) #20
          to label %70 unwind label %40

36:                                               ; preds = %18
  %37 = landingpad { ptr, i32 }
          cleanup
  %38 = extractvalue { ptr, i32 } %37, 0
  store ptr %38, ptr %7, align 8
  %39 = extractvalue { ptr, i32 } %37, 1
  store i32 %39, ptr %8, align 4
  br label %63

40:                                               ; preds = %35, %34, %27
  %41 = landingpad { ptr, i32 }
          cleanup
  %42 = extractvalue { ptr, i32 } %41, 0
  store ptr %42, ptr %7, align 8
  %43 = extractvalue { ptr, i32 } %41, 1
  store i32 %43, ptr %8, align 4
  call void @llvm.lifetime.end.p0(i64 8, ptr %9) #18
  %44 = load i1, ptr %10, align 1
  br i1 %44, label %45, label %46

45:                                               ; preds = %40
  call void @__cxa_free_exception(ptr %28) #18
  br label %46

46:                                               ; preds = %45, %40
  br label %63

47:                                               ; preds = %26
  store i1 true, ptr %12, align 1
  %48 = call ptr @__cxa_allocate_exception(i64 16) #18
  %49 = load ptr, ptr %5, align 8
  call void @llvm.lifetime.start.p0(i64 4, ptr %11) #18
  %50 = load ptr, ptr %3, align 8
  %51 = call noundef nonnull align 8 dereferenceable(8) ptr @_ZNKSt6vectorIPKN6Assimp3FBX5TokenESaIS4_EEixEm(ptr noundef nonnull align 8 dereferenceable(24) %50, i64 noundef 1) #18
  %52 = load ptr, ptr %51, align 8
  %53 = invoke noundef i32 @_ZNK6Assimp3FBX5Token4LineEv(ptr noundef nonnull align 8 dereferenceable(36) %52)
          to label %54 unwind label %56

54:                                               ; preds = %47
  store i32 %53, ptr %11, align 4
  invoke void @_ZN17DeadlyImportErrorC2IJRA40_KcRKNSt7__cxx1112basic_stringIcSt11char_traitsIcESaIcEEERA10_S1_jEEEDpOT_(ptr noundef nonnull align 8 dereferenceable(16) %48, ptr noundef nonnull align 1 dereferenceable(40) @.str.28, ptr noundef nonnull align 8 dereferenceable(32) %49, ptr noundef nonnull align 1 dereferenceable(10) @.str.30, ptr noundef nonnull align 4 dereferenceable(4) %11)
          to label %55 unwind label %56

55:                                               ; preds = %54
  store i1 false, ptr %12, align 1
  invoke void @__cxa_throw(ptr %48, ptr @_ZTI17DeadlyImportError, ptr @_ZNSt13runtime_errorD2Ev) #20
          to label %70 unwind label %56

56:                                               ; preds = %55, %54, %47
  %57 = landingpad { ptr, i32 }
          cleanup
  %58 = extractvalue { ptr, i32 } %57, 0
  store ptr %58, ptr %7, align 8
  %59 = extractvalue { ptr, i32 } %57, 1
  store i32 %59, ptr %8, align 4
  call void @llvm.lifetime.end.p0(i64 4, ptr %11) #18
  %60 = load i1, ptr %12, align 1
  br i1 %60, label %61, label %62

61:                                               ; preds = %56
  call void @__cxa_free_exception(ptr %48) #18
  br label %62

62:                                               ; preds = %61, %56
  br label %63

63:                                               ; preds = %62, %46, %36
  call void @_ZNSt7__cxx1112basic_stringIcSt11char_traitsIcESaIcEED2Ev(ptr noundef nonnull align 8 dereferenceable(32) %6) #18
  call void @llvm.lifetime.end.p0(i64 32, ptr %6) #18
  call void @llvm.lifetime.end.p0(i64 8, ptr %5) #18
  br label %65

64:                                               ; preds = %2
  ret void

65:                                               ; preds = %63
  %66 = load ptr, ptr %7, align 8
  %67 = load i32, ptr %8, align 4
  %68 = insertvalue { ptr, i32 } poison, ptr %66, 0
  %69 = insertvalue { ptr, i32 } %68, i32 %67, 1
  resume { ptr, i32 } %69

70:                                               ; preds = %55, %35
  unreachable
}