; Function Attrs: mustprogress uwtable
define internal fastcc void @_ZN6Assimp3FBX12_GLOBAL__N_115checkTokenCountERKSt6vectorIPKNS0_5TokenESaIS5_EEj(ptr noundef nonnull readonly align 8 captures(none) dereferenceable(24) %0, i32 noundef range(i32 5, 9) %1) unnamed_addr #0 personality ptr @__gxx_personality_v0 {
  %3 = alloca %"class.std::__cxx11::basic_string", align 8
  %4 = alloca i64, align 8
  %5 = alloca i32, align 4
  %6 = getelementptr inbounds nuw i8, ptr %0, i64 8
  %7 = load ptr, ptr %6, align 8
  %8 = load ptr, ptr %0, align 8
  %9 = ptrtoint ptr %7 to i64
  %10 = ptrtoint ptr %8 to i64
  %11 = sub i64 %9, %10
  %12 = ashr exact i64 %11, 3
  %13 = zext nneg i32 %1 to i64
  %14 = icmp ult i64 %12, %13
  br i1 %14, label %15, label %57

15:                                               ; preds = %2
  call void @llvm.lifetime.start.p0(i64 32, ptr nonnull %3) #20
  %16 = getelementptr inbounds nuw i8, ptr %8, i64 8
  %17 = load ptr, ptr %16, align 8
  call void @_ZN6Assimp3FBX18ParseTokenAsStringB5cxx11ERKNS0_5TokenE(ptr dead_on_unwind nonnull writable sret(%"class.std::__cxx11::basic_string") align 8 %3, ptr noundef nonnull align 8 dereferenceable(36) %17)
  %18 = load ptr, ptr %0, align 8
  %19 = getelementptr inbounds nuw i8, ptr %18, i64 8
  %20 = load ptr, ptr %19, align 8
  %21 = getelementptr inbounds nuw i8, ptr %20, i64 32
  %22 = load i32, ptr %21, align 8
  %23 = icmp eq i32 %22, -1
  %24 = call ptr @__cxa_allocate_exception(i64 16) #20
  br i1 %23, label %25, label %36

25:                                               ; preds = %15
  call void @llvm.lifetime.start.p0(i64 8, ptr nonnull %4) #20
  %26 = load ptr, ptr %0, align 8
  %27 = getelementptr inbounds nuw i8, ptr %26, i64 8
  %28 = load ptr, ptr %27, align 8
  %29 = getelementptr inbounds nuw i8, ptr %28, i64 24
  %30 = load i64, ptr %29, align 8
  store i64 %30, ptr %4, align 8
  invoke void @_ZN17DeadlyImportErrorC2IJRA40_KcRKNSt7__cxx1112basic_stringIcSt11char_traitsIcESaIcEEERA12_S1_mEEEDpOT_(ptr noundef nonnull align 8 dereferenceable(16) %24, ptr noundef nonnull align 1 dereferenceable(40) @.str.28, ptr noundef nonnull align 8 dereferenceable(32) %3, ptr noundef nonnull align 1 dereferenceable(12) @.str.29, ptr noundef nonnull align 8 dereferenceable(8) %4)
          to label %31 unwind label %34

31:                                               ; preds = %25
  invoke void @__cxa_throw(ptr nonnull %24, ptr nonnull @_ZTI17DeadlyImportError, ptr nonnull @_ZNSt13runtime_errorD2Ev) #23
          to label %58 unwind label %32

32:                                               ; preds = %31
  %33 = landingpad { ptr, i32 }
          cleanup
  call void @llvm.lifetime.end.p0(i64 8, ptr nonnull %4) #20
  br label %48

34:                                               ; preds = %25
  %35 = landingpad { ptr, i32 }
          cleanup
  call void @llvm.lifetime.end.p0(i64 8, ptr nonnull %4) #20
  call void @__cxa_free_exception(ptr nonnull %24) #20
  br label %48

36:                                               ; preds = %15
  call void @llvm.lifetime.start.p0(i64 4, ptr nonnull %5) #20
  %37 = load ptr, ptr %0, align 8
  %38 = getelementptr inbounds nuw i8, ptr %37, i64 8
  %39 = load ptr, ptr %38, align 8
  %40 = getelementptr inbounds nuw i8, ptr %39, i64 24
  %41 = load i64, ptr %40, align 8
  %42 = trunc i64 %41 to i32
  store i32 %42, ptr %5, align 4
  invoke void @_ZN17DeadlyImportErrorC2IJRA40_KcRKNSt7__cxx1112basic_stringIcSt11char_traitsIcESaIcEEERA10_S1_jEEEDpOT_(ptr noundef nonnull align 8 dereferenceable(16) %24, ptr noundef nonnull align 1 dereferenceable(40) @.str.28, ptr noundef nonnull align 8 dereferenceable(32) %3, ptr noundef nonnull align 1 dereferenceable(10) @.str.30, ptr noundef nonnull align 4 dereferenceable(4) %5)
          to label %43 unwind label %46

43:                                               ; preds = %36
  invoke void @__cxa_throw(ptr nonnull %24, ptr nonnull @_ZTI17DeadlyImportError, ptr nonnull @_ZNSt13runtime_errorD2Ev) #23
          to label %58 unwind label %44

44:                                               ; preds = %43
  %45 = landingpad { ptr, i32 }
          cleanup
  call void @llvm.lifetime.end.p0(i64 4, ptr nonnull %5) #20
  br label %48

46:                                               ; preds = %36
  %47 = landingpad { ptr, i32 }
          cleanup
  call void @llvm.lifetime.end.p0(i64 4, ptr nonnull %5) #20
  call void @__cxa_free_exception(ptr nonnull %24) #20
  br label %48

48:                                               ; preds = %44, %32, %46, %34
  %.pn = phi { ptr, i32 } [ %35, %34 ], [ %33, %32 ], [ %47, %46 ], [ %45, %44 ]
  %49 = load ptr, ptr %3, align 8
  %50 = getelementptr inbounds nuw i8, ptr %3, i64 16
  %51 = icmp eq ptr %49, %50
  br i1 %51, label %_ZNKSt7__cxx1112basic_stringIcSt11char_traitsIcESaIcEE11_M_is_localEv.exit.thread.i.i, label %_ZNKSt7__cxx1112basic_stringIcSt11char_traitsIcESaIcEE11_M_is_localEv.exit.i.i

_ZNKSt7__cxx1112basic_stringIcSt11char_traitsIcESaIcEE11_M_is_localEv.exit.thread.i.i: ; preds = %48
  %52 = getelementptr inbounds nuw i8, ptr %3, i64 8
  %53 = load i64, ptr %52, align 8
  %54 = icmp ult i64 %53, 16
  call void @llvm.assume(i1 %54)
  br label %_ZNSt7__cxx1112basic_stringIcSt11char_traitsIcESaIcEED2Ev.exit

_ZNKSt7__cxx1112basic_stringIcSt11char_traitsIcESaIcEE11_M_is_localEv.exit.i.i: ; preds = %48
  %55 = load i64, ptr %50, align 8
  %56 = add i64 %55, 1
  call void @_ZdlPvm(ptr noundef %49, i64 noundef %56) #21
  br label %_ZNSt7__cxx1112basic_stringIcSt11char_traitsIcESaIcEED2Ev.exit

_ZNSt7__cxx1112basic_stringIcSt11char_traitsIcESaIcEED2Ev.exit: ; preds = %_ZNKSt7__cxx1112basic_stringIcSt11char_traitsIcESaIcEE11_M_is_localEv.exit.thread.i.i, %_ZNKSt7__cxx1112basic_stringIcSt11char_traitsIcESaIcEE11_M_is_localEv.exit.i.i
  call void @llvm.lifetime.end.p0(i64 32, ptr nonnull %3) #20
  resume { ptr, i32 } %.pn

57:                                               ; preds = %2
  ret void

58:                                               ; preds = %43, %31
  unreachable
}